target datalayout = "e-m:e-p270:32:32-p271:32:32-p272:64:64-i64:64-i128:128-f80:128-n8:16:32:64-S128"
target triple = "x86_64-pc-linux-gnu"

%"struct.google::protobuf::internal::ParseTable" = type { ptr, ptr, i32, i64, i64, i64, i64, ptr, i8 }
%"class.google::protobuf::internal::LogMessage" = type { i32, ptr, i32, %"class.std::__cxx11::basic_string" }
%"class.std::__cxx11::basic_string" = type { %"struct.std::__cxx11::basic_string<char>::_Alloc_hider", i64, %union.anon }
%"struct.std::__cxx11::basic_string<char>::_Alloc_hider" = type { ptr }
%union.anon = type { i64, [8 x i8] }
%"class.google::protobuf::internal::LogFinisher" = type { i8 }
%"class.google::protobuf::io::StringOutputStream" = type { %"class.google::protobuf::io::ZeroCopyOutputStream", ptr }
%"class.google::protobuf::io::ZeroCopyOutputStream" = type { ptr }
%"class.google::protobuf::io::CodedOutputStream" = type { %"class.google::protobuf::io::EpsCopyOutputStream", ptr, i64 }
%"class.google::protobuf::io::EpsCopyOutputStream" = type <{ ptr, ptr, [32 x i8], ptr, i8, i8, i8, [5 x i8] }>
%"class.google::protobuf::internal::InternalMetadata" = type { ptr }
%"struct.google::protobuf::internal::InternalMetadata::Container" = type { %"struct.google::protobuf::internal::InternalMetadata::ContainerBase", %"class.std::__cxx11::basic_string" }
%"struct.google::protobuf::internal::InternalMetadata::ContainerBase" = type { ptr }

@.str.8 = private unnamed_addr constant [65 x i8] c"third_party/protobuf-lite/generated_message_table_driven_lite.cc\00", align 1
@.str.9 = private unnamed_addr constant [41 x i8] c"CHECK failed: !table.unknown_field_set: \00", align 1

; Function Attrs: alwaysinline mustprogress nounwind uwtable
define linkonce_odr noundef i32 @_ZNK6google8protobuf8internal16InternalMetadata6PtrTagEv(ptr noundef nonnull align 8 dereferenceable(8) %0) #13 comdat align 2 {
  %2 = alloca ptr, align 8
  store ptr %0, ptr %2, align 8, !tbaa !165
  %3 = load ptr, ptr %2, align 8
  %4 = getelementptr inbounds nuw %"class.google::protobuf::internal::InternalMetadata", ptr %3, i32 0, i32 0
  %5 = load ptr, ptr %4, align 8, !tbaa !167
  %6 = ptrtoint ptr %5 to i64
  %7 = and i64 %6, 1
  %8 = trunc i64 %7 to i32
  ret i32 %8
}

; Function Attrs: mustprogress nounwind uwtable
define linkonce_odr noundef ptr @_ZNK6google8protobuf8internal16InternalMetadata8PtrValueINS2_9ContainerINSt7__cxx1112basic_stringIcSt11char_traitsIcESaIcEEEEEEEPT_v(ptr noundef nonnull align 8 dereferenceable(8) %0) #10 comdat align 2 {
  %2 = alloca ptr, align 8
  store ptr %0, ptr %2, align 8, !tbaa !165
  %3 = load ptr, ptr %2, align 8
  %4 = getelementptr inbounds nuw %"class.google::protobuf::internal::InternalMetadata", ptr %3, i32 0, i32 0
  %5 = load ptr, ptr %4, align 8, !tbaa !167
  %6 = ptrtoint ptr %5 to i64
  %7 = and i64 %6, -2
  %8 = inttoptr i64 %7 to ptr
  ret ptr %8
}

; Function Attrs: alwaysinline mustprogress uwtable
define linkonce_odr noundef zeroext i1 @_ZNK6google8protobuf8internal16InternalMetadata19have_unknown_fieldsEv(ptr noundef nonnull align 8 dereferenceable(8) %0) #7 comdat align 2 {
  %2 = alloca ptr, align 8
  store ptr %0, ptr %2, align 8, !tbaa !165
  %3 = load ptr, ptr %2, align 8
  %4 = call noundef i32 @_ZNK6google8protobuf8internal16InternalMetadata6PtrTagEv(ptr noundef nonnull align 8 dereferenceable(8) %3)
  %5 = icmp eq i32 %4, 1
  ret i1 %5
}

; Function Attrs: alwaysinline mustprogress uwtable
define linkonce_odr noundef ptr @_ZN6google8protobuf8internal16InternalMetadata22mutable_unknown_fieldsINSt7__cxx1112basic_stringIcSt11char_traitsIcESaIcEEEEEPT_v(ptr noundef nonnull align 8 dereferenceable(8) %0) #7 comdat align 2 {
  %2 = alloca ptr, align 8
  %3 = alloca ptr, align 8
  store ptr %0, ptr %3, align 8, !tbaa !165
  %4 = load ptr, ptr %3, align 8
  %5 = call noundef zeroext i1 @_ZNK6google8protobuf8internal16InternalMetadata19have_unknown_fieldsEv(ptr noundef nonnull align 8 dereferenceable(8) %4)
  %6 = xor i1 %5, true
  %7 = xor i1 %6, true
  %8 = zext i1 %7 to i64
  %9 = call i64 @llvm.expect.i64(i64 %8, i64 1)
  %10 = icmp ne i64 %9, 0
  br i1 %10, label %11, label %14

11:                                               ; preds = %1
  %12 = call noundef ptr @_ZNK6google8protobuf8internal16InternalMetadata8PtrValueINS2_9ContainerINSt7__cxx1112basic_stringIcSt11char_traitsIcESaIcEEEEEEEPT_v(ptr noundef nonnull align 8 dereferenceable(8) %4)
  %13 = getelementptr inbounds nuw %"struct.google::protobuf::internal::InternalMetadata::Container", ptr %12, i32 0, i32 1
  store ptr %13, ptr %2, align 8
  br label %16

14:                                               ; preds = %1
  %15 = call noundef ptr @_ZN6google8protobuf8internal16InternalMetadata27mutable_unknown_fields_slowINSt7__cxx1112basic_stringIcSt11char_traitsIcESaIcEEEEEPT_v(ptr noundef nonnull align 8 dereferenceable(8) %4)
  store ptr %15, ptr %2, align 8
  br label %16

16:                                               ; preds = %14, %11
  %17 = load ptr, ptr %2, align 8
  ret ptr %17
}

; Function Attrs: inlinehint mustprogress nounwind uwtable
define linkonce_odr noundef ptr @_ZN6google8protobuf8internal3RawINS1_16InternalMetadataEEEPT_PNS0_11MessageLiteEl(ptr noundef %0, i64 noundef %1) #6 comdat {
  %3 = alloca ptr, align 8
  %4 = alloca i64, align 8
  store ptr %0, ptr %3, align 8, !tbaa !3
  store i64 %1, ptr %4, align 8, !tbaa !35
  %5 = load ptr, ptr %3, align 8, !tbaa !3
  %6 = load i64, ptr %4, align 8, !tbaa !35
  %7 = getelementptr inbounds i8, ptr %5, i64 %6
  ret ptr %7
}

; Function Attrs: mustprogress nounwind uwtable
define linkonce_odr void @_ZN6google8protobuf2io20ZeroCopyOutputStreamD2Ev(ptr noundef nonnull align 8 dereferenceable(8) %0) unnamed_addr #10 comdat align 2 {
  %2 = alloca ptr, align 8
  store ptr %0, ptr %2, align 8, !tbaa !163
  ret void
}

; Function Attrs: mustprogress uwtable
define internal noundef ptr @_ZN6google8protobuf8internal12_GLOBAL__N_120MutableUnknownFieldsB5cxx11EPNS0_11MessageLiteEl(ptr noundef %0, i64 noundef %1) #4 {
  %3 = alloca ptr, align 8
  %4 = alloca i64, align 8
  store ptr %0, ptr %3, align 8, !tbaa !3
  store i64 %1, ptr %4, align 8, !tbaa !35
  %5 = load ptr, ptr %3, align 8, !tbaa !3
  %6 = load i64, ptr %4, align 8, !tbaa !35
  %7 = call noundef ptr @_ZN6google8protobuf8internal3RawINS1_16InternalMetadataEEEPT_PNS0_11MessageLiteEl(ptr noundef %5, i64 noundef %6)
  %8 = call noundef ptr @_ZN6google8protobuf8internal16InternalMetadata22mutable_unknown_fieldsINSt7__cxx1112basic_stringIcSt11char_traitsIcESaIcEEEEEPT_v(ptr noundef nonnull align 8 dereferenceable(8) %7)
  ret ptr %8
}

; Function Attrs: mustprogress uwtable
define internal noundef zeroext i1 @_ZN6google8protobuf8internal12_GLOBAL__N_123UnknownFieldHandlerLite4SkipEPNS0_11MessageLiteERKNS1_10ParseTableEPNS0_2io16CodedInputStreamEi(ptr noundef %0, ptr noundef nonnull align 8 dereferenceable(72) %1, ptr noundef %2, i32 noundef %3) #4 align 2 personality ptr @__gxx_personality_v0 {
  %5 = alloca ptr, align 8
  %6 = alloca ptr, align 8
  %7 = alloca ptr, align 8
  %8 = alloca i32, align 4
  %9 = alloca %"class.google::protobuf::internal::LogMessage", align 8
  %10 = alloca i1, align 1
  %11 = alloca i1, align 1
  %12 = alloca ptr, align 8
  %13 = alloca i32, align 4
  %14 = alloca %"class.google::protobuf::internal::LogFinisher", align 1
  %15 = alloca %"class.google::protobuf::io::StringOutputStream", align 8
  %16 = alloca %"class.google::protobuf::io::CodedOutputStream", align 8
  store ptr %0, ptr %5, align 8, !tbaa !3
  store ptr %1, ptr %6, align 8, !tbaa !8
  store ptr %2, ptr %7, align 8, !tbaa !10
  store i32 %3, ptr %8, align 4, !tbaa !27
  br label %17

17:                                               ; preds = %34, %4
  br i1 false, label %18, label %50

18:                                               ; preds = %17
  %19 = load ptr, ptr %6, align 8, !tbaa !8
  %20 = getelementptr inbounds nuw %"struct.google::protobuf::internal::ParseTable", ptr %19, i32 0, i32 8
  %21 = load i8, ptr %20, align 8, !tbaa !115, !range !59, !noundef !60
  %22 = trunc i8 %21 to i1
  store i1 false, ptr %10, align 1
  store i1 false, ptr %11, align 1
  call void @llvm.lifetime.start.p0(i64 1, ptr %14) #3
  br i1 %22, label %24, label %23

23:                                               ; preds = %18
  br label %28

24:                                               ; preds = %18
  call void @llvm.lifetime.start.p0(i64 56, ptr %9) #3
  store i1 true, ptr %10, align 1
  call void @_ZN6google8protobuf8internal10LogMessageC1ENS0_8LogLevelEPKci(ptr noundef nonnull align 8 dereferenceable(56) %9, i32 noundef 3, ptr noundef @.str.8, i32 noundef 58)
  store i1 true, ptr %11, align 1
  %25 = invoke noundef nonnull align 8 dereferenceable(56) ptr @_ZN6google8protobuf8internal10LogMessagelsEPKc(ptr noundef nonnull align 8 dereferenceable(56) %9, ptr noundef @.str.9)
          to label %26 unwind label %35

26:                                               ; preds = %24
  invoke void @_ZN6google8protobuf8internal11LogFinisheraSERNS1_10LogMessageE(ptr noundef nonnull align 1 dereferenceable(1) %14, ptr noundef nonnull align 8 dereferenceable(56) %25)
          to label %27 unwind label %39

27:                                               ; preds = %26
  br label %28

28:                                               ; preds = %27, %23
  call void @llvm.lifetime.end.p0(i64 1, ptr %14) #3
  %29 = load i1, ptr %11, align 1
  br i1 %29, label %30, label %31

30:                                               ; preds = %28
  call void @_ZN6google8protobuf8internal10LogMessageD1Ev(ptr noundef nonnull align 8 dereferenceable(56) %9) #3
  br label %31

31:                                               ; preds = %30, %28
  %32 = load i1, ptr %10, align 1
  br i1 %32, label %33, label %34

33:                                               ; preds = %31
  call void @llvm.lifetime.end.p0(i64 56, ptr %9) #3
  br label %34

34:                                               ; preds = %33, %31
  br label %17, !llvm.loop !118

35:                                               ; preds = %24
  %36 = landingpad { ptr, i32 }
          cleanup
  %37 = extractvalue { ptr, i32 } %36, 0
  store ptr %37, ptr %12, align 8
  %38 = extractvalue { ptr, i32 } %36, 1
  store i32 %38, ptr %13, align 4
  br label %43

39:                                               ; preds = %26
  %40 = landingpad { ptr, i32 }
          cleanup
  %41 = extractvalue { ptr, i32 } %40, 0
  store ptr %41, ptr %12, align 8
  %42 = extractvalue { ptr, i32 } %40, 1
  store i32 %42, ptr %13, align 4
  call void @llvm.lifetime.end.p0(i64 1, ptr %14) #3
  br label %43

43:                                               ; preds = %39, %35
  %44 = load i1, ptr %11, align 1
  br i1 %44, label %45, label %46

45:                                               ; preds = %43
  call void @_ZN6google8protobuf8internal10LogMessageD1Ev(ptr noundef nonnull align 8 dereferenceable(56) %9) #3
  br label %46

46:                                               ; preds = %45, %43
  %47 = load i1, ptr %10, align 1
  br i1 %47, label %48, label %49

48:                                               ; preds = %46
  call void @llvm.lifetime.end.p0(i64 56, ptr %9) #3
  br label %49

49:                                               ; preds = %48, %46
  br label %70

50:                                               ; preds = %17
  call void @llvm.lifetime.start.p0(i64 16, ptr %15) #3
  %51 = load ptr, ptr %5, align 8, !tbaa !3
  %52 = load ptr, ptr %6, align 8, !tbaa !8
  %53 = getelementptr inbounds nuw %"struct.google::protobuf::internal::ParseTable", ptr %52, i32 0, i32 6
  %54 = load i64, ptr %53, align 8, !tbaa !117
  %55 = call noundef ptr @_ZN6google8protobuf8internal12_GLOBAL__N_120MutableUnknownFieldsB5cxx11EPNS0_11MessageLiteEl(ptr noundef %51, i64 noundef %54)
  call void @_ZN6google8protobuf2io18StringOutputStreamC1EPNSt7__cxx1112basic_stringIcSt11char_traitsIcESaIcEEE(ptr noundef nonnull align 8 dereferenceable(16) %15, ptr noundef %55)
  call void @llvm.lifetime.start.p0(i64 80, ptr %16) #3
  invoke void @_ZN6google8protobuf2io17CodedOutputStreamC1EPNS1_20ZeroCopyOutputStreamEb(ptr noundef nonnull align 8 dereferenceable(80) %16, ptr noundef %15, i1 noundef zeroext false)
          to label %56 unwind label %61

56:                                               ; preds = %50
  %57 = load ptr, ptr %7, align 8, !tbaa !10
  %58 = load i32, ptr %8, align 4, !tbaa !27
  %59 = invoke noundef zeroext i1 @_ZN6google8protobuf8internal14WireFormatLite9SkipFieldEPNS0_2io16CodedInputStreamEjPNS3_17CodedOutputStreamE(ptr noundef %57, i32 noundef %58, ptr noundef %16)
          to label %60 unwind label %65

60:                                               ; preds = %56
  call void @_ZN6google8protobuf2io17CodedOutputStreamD1Ev(ptr noundef nonnull align 8 dereferenceable(80) %16) #3
  call void @llvm.lifetime.end.p0(i64 80, ptr %16) #3
  call void @_ZN6google8protobuf2io20ZeroCopyOutputStreamD2Ev(ptr noundef nonnull align 8 dereferenceable(16) %15) #3
  call void @llvm.lifetime.end.p0(i64 16, ptr %15) #3
  ret i1 %59

61:                                               ; preds = %50
  %62 = landingpad { ptr, i32 }
          cleanup
  %63 = extractvalue { ptr, i32 } %62, 0
  store ptr %63, ptr %12, align 8
  %64 = extractvalue { ptr, i32 } %62, 1
  store i32 %64, ptr %13, align 4
  br label %69

65:                                               ; preds = %56
  %66 = landingpad { ptr, i32 }
          cleanup
  %67 = extractvalue { ptr, i32 } %66, 0
  store ptr %67, ptr %12, align 8
  %68 = extractvalue { ptr, i32 } %66, 1
  store i32 %68, ptr %13, align 4
  call void @_ZN6google8protobuf2io17CodedOutputStreamD1Ev(ptr noundef nonnull align 8 dereferenceable(80) %16) #3
  br label %69

69:                                               ; preds = %65, %61
  call void @llvm.lifetime.end.p0(i64 80, ptr %16) #3
  call void @_ZN6google8protobuf2io20ZeroCopyOutputStreamD2Ev(ptr noundef nonnull align 8 dereferenceable(16) %15) #3
  call void @llvm.lifetime.end.p0(i64 16, ptr %15) #3
  br label %70

70:                                               ; preds = %69, %49
  %71 = load ptr, ptr %12, align 8
  %72 = load i32, ptr %13, align 4
  %73 = insertvalue { ptr, i32 } poison, ptr %71, 0
  %74 = insertvalue { ptr, i32 } %73, i32 %72, 1
  resume { ptr, i32 } %74
}