; Function Attrs: mustprogress uwtable
define internal fastcc noundef zeroext i1 @_ZN6google8protobuf8internal12_GLOBAL__N_123UnknownFieldHandlerLite4SkipEPNS0_11MessageLiteERKNS1_10ParseTableEPNS0_2io16CodedInputStreamEi(ptr noundef %0, i64 %.48.val, ptr noundef %1, i32 noundef %2) unnamed_addr #3 align 2 personality ptr @__gxx_personality_v0 {
  %4 = alloca %"class.google::protobuf::io::StringOutputStream", align 8
  %5 = alloca %"class.google::protobuf::io::CodedOutputStream", align 8
  call void @llvm.lifetime.start.p0(i64 16, ptr nonnull %4) #13
  %6 = getelementptr inbounds i8, ptr %0, i64 %.48.val
  %7 = load ptr, ptr %6, align 8, !tbaa !41
  %8 = ptrtoint ptr %7 to i64
  %9 = and i64 %8, 1
  %.not.i = icmp eq i64 %9, 0
  br i1 %.not.i, label %14, label %10, !prof !23

10:                                               ; preds = %3
  %11 = and i64 %8, -2
  %12 = inttoptr i64 %11 to ptr
  %13 = getelementptr inbounds nuw i8, ptr %12, i64 8
  br label %_ZN6google8protobuf8internal12_GLOBAL__N_120MutableUnknownFieldsB5cxx11EPNS0_11MessageLiteEl.exit

14:                                               ; preds = %3
  %15 = tail call noundef ptr @_ZN6google8protobuf8internal16InternalMetadata27mutable_unknown_fields_slowINSt7__cxx1112basic_stringIcSt11char_traitsIcESaIcEEEEEPT_v(ptr noundef nonnull align 8 dereferenceable(8) %6)
  br label %_ZN6google8protobuf8internal12_GLOBAL__N_120MutableUnknownFieldsB5cxx11EPNS0_11MessageLiteEl.exit

_ZN6google8protobuf8internal12_GLOBAL__N_120MutableUnknownFieldsB5cxx11EPNS0_11MessageLiteEl.exit: ; preds = %10, %14
  %.0.i.i = phi ptr [ %13, %10 ], [ %15, %14 ]
  call void @_ZN6google8protobuf2io18StringOutputStreamC1EPNSt7__cxx1112basic_stringIcSt11char_traitsIcESaIcEEE(ptr noundef nonnull align 8 dereferenceable(16) %4, ptr noundef %.0.i.i)
  call void @llvm.lifetime.start.p0(i64 80, ptr nonnull %5) #13
  call void @_ZN6google8protobuf2io17CodedOutputStreamC1EPNS1_20ZeroCopyOutputStreamEb(ptr noundef nonnull align 8 dereferenceable(80) %5, ptr noundef nonnull %4, i1 noundef zeroext false)
  %16 = invoke noundef zeroext i1 @_ZN6google8protobuf8internal14WireFormatLite9SkipFieldEPNS0_2io16CodedInputStreamEjPNS3_17CodedOutputStreamE(ptr noundef %1, i32 noundef %2, ptr noundef nonnull %5)
          to label %17 unwind label %18

17:                                               ; preds = %_ZN6google8protobuf8internal12_GLOBAL__N_120MutableUnknownFieldsB5cxx11EPNS0_11MessageLiteEl.exit
  call void @_ZN6google8protobuf2io17CodedOutputStreamD1Ev(ptr noundef nonnull align 8 dereferenceable(80) %5) #13
  call void @llvm.lifetime.end.p0(i64 80, ptr nonnull %5) #13
  call void @llvm.lifetime.end.p0(i64 16, ptr nonnull %4) #13
  ret i1 %16

18:                                               ; preds = %_ZN6google8protobuf8internal12_GLOBAL__N_120MutableUnknownFieldsB5cxx11EPNS0_11MessageLiteEl.exit
  %19 = landingpad { ptr, i32 }
          cleanup
  call void @_ZN6google8protobuf2io17CodedOutputStreamD1Ev(ptr noundef nonnull align 8 dereferenceable(80) %5) #13
  call void @llvm.lifetime.end.p0(i64 80, ptr nonnull %5) #13
  call void @llvm.lifetime.end.p0(i64 16, ptr nonnull %4) #13
  resume { ptr, i32 } %19
}